; Function Attrs: nounwind uwtable
define internal ptr @treebuilder_new(ptr noundef %0, ptr readnone captures(none) %1, ptr readnone captures(none) %2) #0 {
  %4 = getelementptr inbounds nuw i8, ptr %0, i64 304
  %5 = load ptr, ptr %4, align 8, !tbaa !105
  %6 = tail call ptr %5(ptr noundef %0, i64 noundef 0) #12
  %.not = icmp eq ptr %6, null
  br i1 %.not, label %Py_DECREF.exit, label %7

7:                                                ; preds = %3
  %8 = getelementptr inbounds nuw i8, ptr %6, i64 16
  store ptr null, ptr %8, align 8, !tbaa !92
  %9 = load i32, ptr @_Py_NoneStruct, align 8, !tbaa !21
  %10 = icmp slt i32 %9, 0
  br i1 %10, label %_Py_NewRef.exit.thread, label %_Py_NewRef.exit

_Py_NewRef.exit.thread:                           ; preds = %7
  %11 = getelementptr inbounds nuw i8, ptr %6, i64 24
  store ptr @_Py_NoneStruct, ptr %11, align 8, !tbaa !93
  br label %_Py_NewRef.exit37

_Py_NewRef.exit:                                  ; preds = %7
  %12 = add nuw i32 %9, 1
  store i32 %12, ptr @_Py_NoneStruct, align 8, !tbaa !21
  %13 = getelementptr inbounds nuw i8, ptr %6, i64 24
  store ptr @_Py_NoneStruct, ptr %13, align 8, !tbaa !93
  %14 = icmp slt i32 %12, 0
  br i1 %14, label %_Py_NewRef.exit37, label %15

15:                                               ; preds = %_Py_NewRef.exit
  %16 = add nuw i32 %9, 2
  store i32 %16, ptr @_Py_NoneStruct, align 8, !tbaa !21
  br label %_Py_NewRef.exit37

_Py_NewRef.exit37:                                ; preds = %_Py_NewRef.exit.thread, %_Py_NewRef.exit, %15
  %17 = phi ptr [ %11, %_Py_NewRef.exit.thread ], [ %13, %_Py_NewRef.exit ], [ %13, %15 ]
  %18 = getelementptr inbounds nuw i8, ptr %6, i64 32
  store ptr @_Py_NoneStruct, ptr %18, align 8, !tbaa !94
  %19 = getelementptr inbounds nuw i8, ptr %6, i64 48
  store ptr null, ptr %19, align 8, !tbaa !96
  %20 = getelementptr inbounds nuw i8, ptr %6, i64 72
  tail call void @llvm.memset.p0.i64(ptr noundef nonnull align 8 dereferenceable(24) %20, i8 0, i64 24, i1 false)
  %21 = tail call ptr @PyList_New(i64 noundef 20) #12
  %22 = getelementptr inbounds nuw i8, ptr %6, i64 56
  store ptr %21, ptr %22, align 8, !tbaa !97
  %.not30 = icmp eq ptr %21, null
  br i1 %.not30, label %23, label %41

23:                                               ; preds = %_Py_NewRef.exit37
  %24 = load ptr, ptr %17, align 8, !tbaa !93
  %25 = load i32, ptr %24, align 8, !tbaa !21
  %.not.i33 = icmp sgt i32 %25, -1
  br i1 %.not.i33, label %26, label %Py_DECREF.exit34

26:                                               ; preds = %23
  %27 = add nsw i32 %25, -1
  store i32 %27, ptr %24, align 8, !tbaa !21
  %28 = icmp eq i32 %27, 0
  br i1 %28, label %29, label %Py_DECREF.exit34

29:                                               ; preds = %26
  tail call void @_Py_Dealloc(ptr noundef nonnull %24) #12
  br label %Py_DECREF.exit34

Py_DECREF.exit34:                                 ; preds = %23, %26, %29
  %30 = load ptr, ptr %18, align 8, !tbaa !94
  %31 = load i32, ptr %30, align 8, !tbaa !21
  %.not.i31 = icmp sgt i32 %31, -1
  br i1 %.not.i31, label %32, label %Py_DECREF.exit32

32:                                               ; preds = %Py_DECREF.exit34
  %33 = add nsw i32 %31, -1
  store i32 %33, ptr %30, align 8, !tbaa !21
  %34 = icmp eq i32 %33, 0
  br i1 %34, label %35, label %Py_DECREF.exit32

35:                                               ; preds = %32
  tail call void @_Py_Dealloc(ptr noundef nonnull %30) #12
  br label %Py_DECREF.exit32

Py_DECREF.exit32:                                 ; preds = %Py_DECREF.exit34, %32, %35
  %36 = load i32, ptr %6, align 8, !tbaa !21
  %.not.i = icmp sgt i32 %36, -1
  br i1 %.not.i, label %37, label %Py_DECREF.exit

37:                                               ; preds = %Py_DECREF.exit32
  %38 = add nsw i32 %36, -1
  store i32 %38, ptr %6, align 8, !tbaa !21
  %39 = icmp eq i32 %38, 0
  br i1 %39, label %40, label %Py_DECREF.exit

40:                                               ; preds = %37
  tail call void @_Py_Dealloc(ptr noundef nonnull %6) #12
  br label %Py_DECREF.exit

41:                                               ; preds = %_Py_NewRef.exit37
  %42 = getelementptr inbounds nuw i8, ptr %6, i64 64
  store i64 0, ptr %42, align 8, !tbaa !106
  %43 = getelementptr inbounds nuw i8, ptr %6, i64 96
  tail call void @llvm.memset.p0.i64(ptr noundef nonnull align 8 dereferenceable(58) %43, i8 0, i64 58, i1 false)
  %44 = tail call ptr @PyType_GetModuleByDef(ptr noundef nonnull %0, ptr noundef nonnull @elementtreemodule) #12
  %45 = tail call ptr @PyModule_GetState(ptr noundef %44) #12
  %46 = getelementptr inbounds nuw i8, ptr %6, i64 160
  store ptr %45, ptr %46, align 8, !tbaa !102
  br label %Py_DECREF.exit

Py_DECREF.exit:                                   ; preds = %40, %37, %Py_DECREF.exit32, %3, %41
  %.0 = phi ptr [ %6, %41 ], [ null, %3 ], [ null, %Py_DECREF.exit32 ], [ null, %37 ], [ null, %40 ]
  ret ptr %.0
}